Certificate:
    Data:
        Version: 3 (0x2)
        Serial Number: 268435668 (0x100000d4)
        Signature Algorithm: sha256WithRSAEncryption
        Issuer: C=DE, ST=Hessen, O=privacyidea, CN=CA001
        Validity
            Not Before: Nov 18 09:39:32 2021 GMT
            Not After : Nov 18 09:39:32 2022 GMT
        Subject: CN=cn=cornelius
        Subject Public Key Info:
            Public Key Algorithm: rsaEncryption
                RSA Public-Key: (2048 bit)
                Modulus:
                    00:ce:a4:39:30:25:73:e4:9d:e6:37:3b:85:59:83:
                    ef:a3:6e:f9:83:b9:f7:48:b0:0b:d5:e8:05:40:61:
                    cd:c5:5a:bc:11:2f:5b:4e:d0:4f:b8:d0:e8:7f:05:
                    ab:ad:24:0b:90:d4:3f:60:ec:15:b6:4e:be:8e:d9:
                    26:ab:f2:2f:7f:35:c2:a6:a1:bc:52:3a:d9:88:fb:
                    b3:fa:71:20:b9:51:0e:f8:af:0d:16:be:bd:5d:b9:
                    ab:30:d5:ac:6b:3c:bc:ee:28:4a:4f:6f:d4:09:15:
                    f7:98:af:77:db:36:15:2e:1e:ee:0f:d0:d9:60:ad:
                    db:b9:c4:3f:c6:25:32:f9:e3:e9:50:b8:ec:84:a0:
                    c4:d2:9c:fd:ce:25:80:85:7e:3a:ad:4c:a7:40:1b:
                    0a:58:18:9f:c2:5e:36:e1:d1:44:e9:46:b6:dc:b4:
                    28:a2:ec:ed:02:f7:25:79:e1:86:8e:69:67:52:ee:
                    82:21:b7:84:2d:cc:e7:a8:39:57:7d:a3:1e:e9:50:
                    63:77:29:ab:e4:a5:ff:dc:ee:4c:4b:5e:08:2b:62:
                    08:2d:75:b8:26:6c:93:eb:f5:45:ea:cd:83:58:53:
                    15:46:e6:6b:43:c1:2f:d9:88:4b:3d:d5:fd:0c:ff:
                    51:52:ed:54:fb:27:2d:59:ef:4c:50:ce:71:cd:eb:
                    5a:99
                Exponent: 65537 (0x10001)
        X509v3 extensions:
            X509v3 Key Usage: 
                Digital Signature, Key Encipherment
            X509v3 Basic Constraints: 
                CA:FALSE
            Netscape Cert Type: 
                SSL Server
            Netscape Comment: 
                OpenSSL Generated Server Certificate
            X509v3 Subject Key Identifier: 
                0E:D5:BA:4E:7D:92:57:15:FD:61:4E:34:5B:E9:62:D0:20:1C:7D:08
            X509v3 Authority Key Identifier: 
                keyid:F4:A7:C0:CC:91:46:AF:64:F3:91:F2:27:F8:C8:B2:6F:8A:87:32:73
                DirName:/C=DE/ST=Hessen/O=privacyidea/CN=CA001
                serial:FB:C8:EB:AC:83:CD:12:07

            X509v3 Extended Key Usage: 
                TLS Web Server Authentication
    Signature Algorithm: sha256WithRSAEncryption
         74:62:36:a5:3f:99:72:ed:1a:3e:98:9d:33:56:ea:a6:ee:8d:
         ee:2c:3a:a1:26:98:11:74:5f:fb:dd:24:a2:80:be:4e:18:a0:
         cc:38:cf:43:4e:e4:14:37:5e:b3:f7:4c:0c:f7:6e:ff:6b:61:
         a5:7a:23:3c:6f:43:d4:80:66:8e:5e:67:e5:6b:c3:22:15:e1:
         36:74:a2:c7:33:0e:0f:87:3a:63:5f:9b:52:95:3c:b7:70:67:
         68:6e:f7:cf:32:7c:86:6c:b8:7c:2e:26:72:2b:c0:d3:65:79:
         14:8c:4f:ee:a4:c0:5f:f5:e7:4d:7e:44:2e:b9:16:b5:05:ca:
         65:72:7c:b7:b1:f2:a9:a5:2a:f9:09:2d:72:c2:2d:8c:3a:c2:
         d7:ae:c4:81:a4:2a:41:2f:49:c2:71:36:1e:dd:a9:83:ce:da:
         60:1f:8f:af:f5:11:e7:81:55:cb:a4:42:a8:d0:93:19:5c:2f:
         a7:50:ef:a9:7b:db:0c:54:66:58:d3:f0:96:6e:f9:d3:ef:d5:
         29:fc:47:02:14:6b:9f:56:6c:c8:ea:67:9e:89:71:2d:fe:f2:
         33:26:28:80:1b:d7:d5:f3:b4:bb:d0:9c:6a:27:15:e0:06:10:
         02:06:fe:9a:60:c0:ca:b8:e6:1b:67:9c:bd:1d:18:f1:07:98:
         b4:3b:4a:6d
-----BEGIN CERTIFICATE-----
MIID6TCCAtGgAwIBAgIEEAAA1DANBgkqhkiG9w0BAQsFADBEMQswCQYDVQQGEwJE
RTEPMA0GA1UECAwGSGVzc2VuMRQwEgYDVQQKDAtwcml2YWN5aWRlYTEOMAwGA1UE
AwwFQ0EwMDEwHhcNMjExMTE4MDkzOTMyWhcNMjIxMTE4MDkzOTMyWjAXMRUwEwYD
VQQDDAxjbj1jb3JuZWxpdXMwggEiMA0GCSqGSIb3DQEBAQUAA4IBDwAwggEKAoIB
AQDOpDkwJXPkneY3O4VZg++jbvmDufdIsAvV6AVAYc3FWrwRL1tO0E+40Oh/Baut
JAuQ1D9g7BW2Tr6O2Sar8i9/NcKmobxSOtmI+7P6cSC5UQ74rw0Wvr1duasw1axr
PLzuKEpPb9QJFfeYr3fbNhUuHu4P0Nlgrdu5xD/GJTL54+lQuOyEoMTSnP3OJYCF
fjqtTKdAGwpYGJ/CXjbh0UTpRrbctCii7O0C9yV54YaOaWdS7oIht4QtzOeoOVd9
ox7pUGN3Kavkpf/c7kxLXggrYggtdbgmbJPr9UXqzYNYUxVG5mtDwS/ZiEs91f0M
/1FS7VT7Jy1Z70xQznHN61qZAgMBAAGjggEOMIIBCjALBgNVHQ8EBAMCBaAwCQYD
VR0TBAIwADARBglghkgBhvhCAQEEBAMCBkAwMwYJYIZIAYb4QgENBCYWJE9wZW5T
U0wgR2VuZXJhdGVkIFNlcnZlciBDZXJ0aWZpY2F0ZTAdBgNVHQ4EFgQUDtW6Tn2S
VxX9YU40W+li0CAcfQgwdAYDVR0jBG0wa4AU9KfAzJFGr2TzkfIn+Miyb4qHMnOh
SKRGMEQxCzAJBgNVBAYTAkRFMQ8wDQYDVQQIDAZIZXNzZW4xFDASBgNVBAoMC3By
aXZhY3lpZGVhMQ4wDAYDVQQDDAVDQTAwMYIJAPvI66yDzRIHMBMGA1UdJQQMMAoG
CCsGAQUFBwMBMA0GCSqGSIb3DQEBCwUAA4IBAQB0YjalP5ly7Ro+mJ0zVuqm7o3u
LDqhJpgRdF/73SSigL5OGKDMOM9DTuQUN16z90wM927/a2GleiM8b0PUgGaOXmfl
a8MiFeE2dKLHMw4PhzpjX5tSlTy3cGdobvfPMnyGbLh8LiZyK8DTZXkUjE/upMBf
9edNfkQuuRa1Bcplcny3sfKppSr5CS1ywi2MOsLXrsSBpCpBL0nCcTYe3amDztpg
H4+v9RHngVXLpEKo0JMZXC+nUO+pe9sMVGZY0/CWbvnT79Up/EcCFGufVmzI6mee
iXEt/vIzJiiAG9fV87S70JxqJxXgBhACBv6aYMDKuOYbZ5y9HRjxB5i0O0pt
-----END CERTIFICATE-----
