Certificate:
    Data:
        Version: 3 (0x2)
        Serial Number: 268435669 (0x100000d5)
        Signature Algorithm: sha256WithRSAEncryption
        Issuer: C=DE, ST=Hessen, O=privacyidea, CN=CA001
        Validity
            Not Before: Nov 18 09:39:33 2021 GMT
            Not After : Nov 18 09:39:33 2022 GMT
        Subject: OU=realm1, CN=cornelius/emailAddress=user@localhost.localdomain
        Subject Public Key Info:
            Public Key Algorithm: rsaEncryption
                RSA Public-Key: (2048 bit)
                Modulus:
                    00:ef:10:5c:67:39:e6:e3:0f:4a:10:de:dc:91:30:
                    36:60:e5:0a:4c:f5:0d:d6:c1:f3:9b:8a:8a:2b:ad:
                    2f:4e:af:fc:19:79:c9:b3:1e:85:75:e9:09:a1:a8:
                    9b:28:3a:d5:28:0f:86:8b:2c:30:be:be:97:5b:93:
                    22:62:a0:1b:6d:f9:0d:36:12:44:3d:fc:3d:e0:51:
                    71:a6:d5:86:59:31:86:03:9b:4a:9d:37:46:52:78:
                    a7:fc:23:dc:4e:65:61:4b:ac:d3:d9:d7:a7:a0:54:
                    0f:0b:90:32:f4:54:e0:75:0c:2b:f4:38:09:45:94:
                    8f:a8:2d:31:71:e1:23:3e:e0:6a:81:ab:ec:c9:9d:
                    bc:44:c0:6c:4a:24:c7:c3:c9:e0:0f:87:d6:5d:8a:
                    22:50:4b:fc:e5:de:cb:03:4d:91:96:08:32:50:5f:
                    6e:58:bd:70:03:3f:a6:b2:ba:db:60:03:da:7b:17:
                    80:7b:2f:17:95:36:bb:e2:e4:ca:63:38:ff:5a:32:
                    8b:46:88:e5:c3:49:e6:ed:eb:ae:c6:eb:02:87:f4:
                    6b:1c:3a:7f:15:b9:f2:c0:1e:2c:66:81:b6:9a:5e:
                    a2:7c:b4:60:81:c8:3f:73:ce:c2:2d:60:b2:29:09:
                    05:3a:6d:8b:3b:81:dd:6d:fd:e9:69:1f:b6:ab:91:
                    5e:01
                Exponent: 65537 (0x10001)
        X509v3 extensions:
            X509v3 Key Usage: 
                Digital Signature, Key Encipherment
            X509v3 Basic Constraints: 
                CA:FALSE
            Netscape Cert Type: 
                SSL Server
            Netscape Comment: 
                OpenSSL Generated Server Certificate
            X509v3 Subject Key Identifier: 
                DF:36:FF:99:49:A8:38:9F:DF:12:82:BD:AE:37:84:09:A0:8D:28:A5
            X509v3 Authority Key Identifier: 
                keyid:F4:A7:C0:CC:91:46:AF:64:F3:91:F2:27:F8:C8:B2:6F:8A:87:32:73
                DirName:/C=DE/ST=Hessen/O=privacyidea/CN=CA001
                serial:FB:C8:EB:AC:83:CD:12:07

            X509v3 Extended Key Usage: 
                TLS Web Server Authentication
    Signature Algorithm: sha256WithRSAEncryption
         93:66:1a:5a:a2:f4:e0:89:eb:4b:7f:8a:7c:da:2b:56:7b:95:
         d3:bf:f8:b0:46:c5:9f:88:76:c1:4f:1f:9d:9e:8e:ea:7a:78:
         92:01:68:62:3b:78:df:5c:f7:82:68:a9:7a:02:23:58:e8:d1:
         a6:55:de:21:4c:ad:33:b4:3c:2a:dc:33:c0:2e:11:8d:6a:15:
         c0:93:a2:e0:04:c7:ed:ac:1e:0b:4a:f8:f6:9a:c6:de:59:f7:
         de:c9:1d:7a:a8:57:1a:1e:37:45:ee:16:f3:04:00:9c:89:3c:
         78:67:8a:56:a8:31:d7:8a:8e:54:0c:5d:a6:2e:ab:6d:b4:a7:
         ae:02:36:27:75:c9:0a:e5:a2:71:16:b5:07:a9:93:0e:c5:56:
         29:a1:57:ad:b4:fb:e9:5a:17:fe:b1:22:8d:f7:68:f2:d9:6c:
         f8:64:db:f7:ad:d8:0c:de:f0:30:f9:20:b5:e6:04:89:31:38:
         d0:80:36:72:3a:24:ce:07:c5:e0:5a:a5:e5:62:fd:89:08:7c:
         ad:79:0b:a1:91:48:26:7c:aa:07:a6:d4:7f:4a:a6:c3:9b:74:
         8c:ff:33:cd:45:a4:8c:a1:37:fd:96:ad:ef:71:bb:47:77:e3:
         45:9b:40:dc:0f:74:e8:f3:fd:fd:2a:52:6b:6d:6b:cd:ff:2f:
         70:0f:e5:ba
-----BEGIN CERTIFICATE-----
MIIEIjCCAwqgAwIBAgIEEAAA1TANBgkqhkiG9w0BAQsFADBEMQswCQYDVQQGEwJE
RTEPMA0GA1UECAwGSGVzc2VuMRQwEgYDVQQKDAtwcml2YWN5aWRlYTEOMAwGA1UE
AwwFQ0EwMDEwHhcNMjExMTE4MDkzOTMzWhcNMjIxMTE4MDkzOTMzWjBQMQ8wDQYD
VQQLDAZyZWFsbTExEjAQBgNVBAMMCWNvcm5lbGl1czEpMCcGCSqGSIb3DQEJARYa
dXNlckBsb2NhbGhvc3QubG9jYWxkb21haW4wggEiMA0GCSqGSIb3DQEBAQUAA4IB
DwAwggEKAoIBAQDvEFxnOebjD0oQ3tyRMDZg5QpM9Q3WwfObioorrS9Or/wZecmz
HoV16QmhqJsoOtUoD4aLLDC+vpdbkyJioBtt+Q02EkQ9/D3gUXGm1YZZMYYDm0qd
N0ZSeKf8I9xOZWFLrNPZ16egVA8LkDL0VOB1DCv0OAlFlI+oLTFx4SM+4GqBq+zJ
nbxEwGxKJMfDyeAPh9ZdiiJQS/zl3ssDTZGWCDJQX25YvXADP6ayuttgA9p7F4B7
LxeVNrvi5MpjOP9aMotGiOXDSebt667G6wKH9GscOn8VufLAHixmgbaaXqJ8tGCB
yD9zzsItYLIpCQU6bYs7gd1t/elpH7arkV4BAgMBAAGjggEOMIIBCjALBgNVHQ8E
BAMCBaAwCQYDVR0TBAIwADARBglghkgBhvhCAQEEBAMCBkAwMwYJYIZIAYb4QgEN
BCYWJE9wZW5TU0wgR2VuZXJhdGVkIFNlcnZlciBDZXJ0aWZpY2F0ZTAdBgNVHQ4E
FgQU3zb/mUmoOJ/fEoK9rjeECaCNKKUwdAYDVR0jBG0wa4AU9KfAzJFGr2TzkfIn
+Miyb4qHMnOhSKRGMEQxCzAJBgNVBAYTAkRFMQ8wDQYDVQQIDAZIZXNzZW4xFDAS
BgNVBAoMC3ByaXZhY3lpZGVhMQ4wDAYDVQQDDAVDQTAwMYIJAPvI66yDzRIHMBMG
A1UdJQQMMAoGCCsGAQUFBwMBMA0GCSqGSIb3DQEBCwUAA4IBAQCTZhpaovTgietL
f4p82itWe5XTv/iwRsWfiHbBTx+dno7qeniSAWhiO3jfXPeCaKl6AiNY6NGmVd4h
TK0ztDwq3DPALhGNahXAk6LgBMftrB4LSvj2msbeWffeyR16qFcaHjdF7hbzBACc
iTx4Z4pWqDHXio5UDF2mLqtttKeuAjYndckK5aJxFrUHqZMOxVYpoVettPvpWhf+
sSKN92jy2Wz4ZNv3rdgM3vAw+SC15gSJMTjQgDZyOiTOB8XgWqXlYv2JCHyteQuh
kUgmfKoHptR/SqbDm3SM/zPNRaSMoTf9lq3vcbtHd+NFm0DcD3To8/39KlJrbWvN
/y9wD+W6
-----END CERTIFICATE-----
