Certificate:
    Data:
        Version: 3 (0x2)
        Serial Number: 268435670 (0x100000d6)
        Signature Algorithm: sha256WithRSAEncryption
        Issuer: C=DE, ST=Hessen, O=privacyidea, CN=CA001
        Validity
            Not Before: Nov 18 09:41:36 2021 GMT
            Not After : Nov 18 09:41:36 2022 GMT
        Subject: CN=selfservice,CN=user,O=realm1/emailAddress=meine
        Subject Public Key Info:
            Public Key Algorithm: rsaEncryption
                RSA Public-Key: (2048 bit)
                Modulus:
                    00:cf:3c:d4:33:0e:12:c4:e6:da:cd:b6:56:a1:1c:
                    26:bb:26:1c:8a:4a:73:a8:58:8a:b6:1e:b3:8b:99:
                    d2:1d:07:c2:92:89:79:c0:69:d8:c8:df:28:61:98:
                    1e:b3:fe:ae:2b:bd:78:a9:f7:6e:47:dc:a3:a0:16:
                    8c:85:02:c1:4e:92:fd:72:6e:f0:c8:03:29:9b:b8:
                    00:6e:c0:83:95:c8:34:20:36:9c:b3:e5:e4:e6:76:
                    73:a3:1a:ad:40:96:e0:53:54:00:ec:76:79:9a:c6:
                    0d:7e:b6:bd:29:ec:83:f3:cb:89:a4:cb:6c:00:ba:
                    0c:c5:78:0f:ff:69:b8:94:f4:04:70:43:3f:d8:9e:
                    d7:a7:fb:5d:ce:75:8e:da:e7:c4:07:b1:9d:de:6f:
                    88:4b:b6:4d:9a:cf:f9:bc:fa:9f:cd:32:6d:f6:3a:
                    0b:0d:23:42:78:ec:97:42:bf:0e:4d:60:56:e1:d3:
                    02:f2:19:cb:84:57:90:e5:70:a1:a2:83:35:86:e2:
                    da:86:9f:f9:8a:c4:79:b3:52:28:da:cb:bb:34:ca:
                    d3:da:91:4a:cf:8d:76:a2:b2:6b:9b:f9:96:fd:09:
                    2a:da:11:23:4d:f0:cb:d6:b2:b1:0e:12:6c:9a:19:
                    65:98:87:ca:e4:ee:24:ce:44:ac:90:8f:9d:1b:c5:
                    2a:9d
                Exponent: 65537 (0x10001)
        X509v3 extensions:
            X509v3 Key Usage: 
                Digital Signature, Key Encipherment
            X509v3 Basic Constraints: 
                CA:FALSE
            Netscape Cert Type: 
                SSL Server
            Netscape Comment: 
                OpenSSL Generated Server Certificate
            X509v3 Subject Key Identifier: 
                4D:07:90:AD:FF:1D:0D:E7:1A:DD:D6:2E:FA:BA:34:CB:AA:1F:24:C6
            X509v3 Authority Key Identifier: 
                keyid:F4:A7:C0:CC:91:46:AF:64:F3:91:F2:27:F8:C8:B2:6F:8A:87:32:73
                DirName:/C=DE/ST=Hessen/O=privacyidea/CN=CA001
                serial:FB:C8:EB:AC:83:CD:12:07

            X509v3 Extended Key Usage: 
                TLS Web Server Authentication
    Signature Algorithm: sha256WithRSAEncryption
         33:41:fd:10:d5:2f:30:87:e6:c5:ce:ef:40:66:58:96:6d:91:
         df:da:4e:ec:6e:c9:2f:b5:0b:50:92:86:69:aa:79:29:1e:10:
         49:ac:5d:bb:1f:8a:25:c9:e3:54:d7:4e:6e:23:66:a6:d1:40:
         5c:72:12:22:cc:27:8a:6c:d3:41:b5:33:4b:14:44:7a:9a:1f:
         16:25:a7:82:2d:6d:73:c2:f1:cd:ef:64:04:90:a8:3f:5c:e8:
         8c:43:0e:2a:3b:b0:4b:e1:d5:43:11:f9:21:3e:5b:b1:80:dc:
         78:6d:52:a7:7c:ee:22:92:f1:99:01:2d:ff:cc:c6:31:24:aa:
         2b:ab:c0:ed:68:83:6b:96:1a:32:99:b6:ef:43:59:8a:bb:28:
         8e:29:76:68:1b:b4:14:5d:26:f4:8a:97:07:17:de:7c:f3:30:
         3e:8a:fe:45:ae:10:f3:28:d7:c5:1f:95:b3:f2:8f:b4:e4:ce:
         59:dd:17:20:bb:ec:ec:4c:37:83:20:e9:7a:eb:c7:84:b2:c1:
         bb:9d:ed:9f:b7:ef:89:1a:8d:81:a3:bb:03:8f:d9:26:68:7c:
         d0:4c:c7:21:fe:58:40:18:85:07:60:28:96:88:53:87:56:31:
         1e:70:c2:66:47:16:1a:5d:ca:d3:c8:e1:d4:e4:f8:93:41:09:
         05:f5:d9:3a
-----BEGIN CERTIFICATE-----
MIIEDzCCAvegAwIBAgIEEAAA1jANBgkqhkiG9w0BAQsFADBEMQswCQYDVQQGEwJE
RTEPMA0GA1UECAwGSGVzc2VuMRQwEgYDVQQKDAtwcml2YWN5aWRlYTEOMAwGA1UE
AwwFQ0EwMDEwHhcNMjExMTE4MDk0MTM2WhcNMjIxMTE4MDk0MTM2WjA9MSUwIwYD
VQQDDBxzZWxmc2VydmljZSxDTj11c2VyLE89cmVhbG0xMRQwEgYJKoZIhvcNAQkB
FgVtZWluZTCCASIwDQYJKoZIhvcNAQEBBQADggEPADCCAQoCggEBAM881DMOEsTm
2s22VqEcJrsmHIpKc6hYirYes4uZ0h0HwpKJecBp2MjfKGGYHrP+riu9eKn3bkfc
o6AWjIUCwU6S/XJu8MgDKZu4AG7Ag5XINCA2nLPl5OZ2c6MarUCW4FNUAOx2eZrG
DX62vSnsg/PLiaTLbAC6DMV4D/9puJT0BHBDP9ie16f7Xc51jtrnxAexnd5viEu2
TZrP+bz6n80ybfY6Cw0jQnjsl0K/Dk1gVuHTAvIZy4RXkOVwoaKDNYbi2oaf+YrE
ebNSKNrLuzTK09qRSs+NdqKya5v5lv0JKtoRI03wy9aysQ4SbJoZZZiHyuTuJM5E
rJCPnRvFKp0CAwEAAaOCAQ4wggEKMAsGA1UdDwQEAwIFoDAJBgNVHRMEAjAAMBEG
CWCGSAGG+EIBAQQEAwIGQDAzBglghkgBhvhCAQ0EJhYkT3BlblNTTCBHZW5lcmF0
ZWQgU2VydmVyIENlcnRpZmljYXRlMB0GA1UdDgQWBBRNB5Ct/x0N5xrd1i76ujTL
qh8kxjB0BgNVHSMEbTBrgBT0p8DMkUavZPOR8if4yLJviocyc6FIpEYwRDELMAkG
A1UEBhMCREUxDzANBgNVBAgMBkhlc3NlbjEUMBIGA1UECgwLcHJpdmFjeWlkZWEx
DjAMBgNVBAMMBUNBMDAxggkA+8jrrIPNEgcwEwYDVR0lBAwwCgYIKwYBBQUHAwEw
DQYJKoZIhvcNAQELBQADggEBADNB/RDVLzCH5sXO70BmWJZtkd/aTuxuyS+1C1CS
hmmqeSkeEEmsXbsfiiXJ41TXTm4jZqbRQFxyEiLMJ4ps00G1M0sURHqaHxYlp4It
bXPC8c3vZASQqD9c6IxDDio7sEvh1UMR+SE+W7GA3HhtUqd87iKS8ZkBLf/MxjEk
qiurwO1og2uWGjKZtu9DWYq7KI4pdmgbtBRdJvSKlwcX3nzzMD6K/kWuEPMo18Uf
lbPyj7TkzlndFyC77OxMN4Mg6Xrrx4Sywbud7Z+374kajYGjuwOP2SZofNBMxyH+
WEAYhQdgKJaIU4dWMR5wwmZHFhpdytPI4dTk+JNBCQX12To=
-----END CERTIFICATE-----
