Certificate:
    Data:
        Version: 3 (0x2)
        Serial Number: 268435667 (0x100000d3)
        Signature Algorithm: sha256WithRSAEncryption
        Issuer: C=DE, ST=Hessen, O=privacyidea, CN=CA001
        Validity
            Not Before: Nov 18 09:39:32 2021 GMT
            Not After : Nov 18 09:39:32 2022 GMT
        Subject: C=DE, ST=Hessen, O=privacyidea, CN=requester.localdomain
        Subject Public Key Info:
            Public Key Algorithm: rsaEncryption
                RSA Public-Key: (2048 bit)
                Modulus:
                    00:cd:be:14:4f:fa:ce:01:3f:42:22:1b:1d:9c:af:
                    dd:92:d2:7f:db:6c:b7:3e:39:43:43:6b:13:03:f1:
                    05:f4:07:74:bc:76:69:28:0b:af:19:8e:d7:fc:e3:
                    cd:c6:58:f2:ca:7f:08:6d:53:fc:07:02:44:24:c6:
                    b4:34:4c:8c:04:fe:33:0e:40:e2:20:ba:02:73:5a:
                    f7:f5:4f:63:6e:cc:c6:b6:df:54:1d:37:39:7d:51:
                    36:26:5f:bd:dc:3f:a8:8b:6b:a2:ae:b6:9d:d6:21:
                    e7:df:41:b8:7a:28:2a:68:48:ca:a8:2d:ed:e1:e9:
                    46:5e:5a:72:6d:b4:84:38:87:91:fd:94:11:0b:28:
                    84:c6:c2:2f:2a:fb:01:f9:36:7a:09:75:d1:33:88:
                    3c:73:41:5b:c8:bf:94:89:70:a1:f0:c0:b9:2e:50:
                    53:1e:b1:17:64:69:f4:2d:81:e0:a9:0d:0e:32:e9:
                    ba:55:8a:85:f1:1b:6f:49:79:b4:7f:88:c3:0d:3e:
                    54:88:9b:3d:1f:38:8c:04:f3:ee:6a:63:2b:f5:c6:
                    db:b4:83:aa:c4:78:41:3a:7d:4b:e1:c8:3e:71:ca:
                    1b:61:59:ea:c6:c4:ca:32:5e:c9:e9:bf:12:29:e6:
                    c6:c3:63:fe:a0:55:da:7a:f1:60:98:4d:26:ed:fa:
                    70:2d
                Exponent: 65537 (0x10001)
        X509v3 extensions:
            X509v3 Key Usage: 
                Digital Signature, Key Encipherment
            X509v3 Basic Constraints: 
                CA:FALSE
            Netscape Cert Type: 
                SSL Server
            Netscape Comment: 
                OpenSSL Generated Server Certificate
            X509v3 Subject Key Identifier: 
                53:3F:ED:5D:09:07:B3:65:7B:AB:45:C9:24:5B:09:77:80:0A:96:ED
            X509v3 Authority Key Identifier: 
                keyid:F4:A7:C0:CC:91:46:AF:64:F3:91:F2:27:F8:C8:B2:6F:8A:87:32:73
                DirName:/C=DE/ST=Hessen/O=privacyidea/CN=CA001
                serial:FB:C8:EB:AC:83:CD:12:07

            X509v3 Extended Key Usage: 
                TLS Web Server Authentication
    Signature Algorithm: sha256WithRSAEncryption
         6d:37:f2:23:ce:8d:b6:10:2b:da:5d:7a:a9:75:29:e8:a6:49:
         b6:31:48:b1:bc:4f:f3:aa:db:e1:2f:9e:16:e1:19:43:cc:63:
         ab:a0:65:15:f4:88:f7:8a:79:e5:b4:73:99:ee:25:9f:fb:10:
         1e:39:89:4a:ff:af:4d:4a:2d:3c:a6:c5:54:17:4c:83:a3:f5:
         5a:3f:e5:50:17:00:a0:55:e9:d3:8b:63:0a:fc:67:fc:ee:f7:
         73:47:cb:05:a1:af:bc:9c:dd:2f:91:7e:fa:32:8d:c8:a6:ae:
         61:4a:50:23:3b:89:b5:a7:88:cb:9c:28:ea:19:5f:e4:cd:14:
         ce:ca:9b:5e:79:68:ff:ae:33:44:02:18:64:9e:9d:e2:5b:35:
         20:13:9b:f1:ef:9b:2c:fd:00:7e:ad:8c:94:2b:a8:8c:f5:82:
         cd:78:9c:fa:6b:d1:24:a6:99:6a:78:5a:60:38:a8:d5:3e:b4:
         d1:42:79:3c:81:a5:3c:8f:64:57:5f:a6:7c:3b:70:9d:db:36:
         a9:cd:ad:f2:c8:bb:ae:79:83:85:5c:fb:0c:a3:1e:56:24:a2:
         a8:7d:5c:3f:1a:83:92:87:77:95:9c:47:40:82:ab:94:78:80:
         9d:8c:20:8c:a8:43:b5:14:0e:d7:1f:eb:32:3f:34:61:40:cf:
         0a:a0:67:a2
-----BEGIN CERTIFICATE-----
MIIEJjCCAw6gAwIBAgIEEAAA0zANBgkqhkiG9w0BAQsFADBEMQswCQYDVQQGEwJE
RTEPMA0GA1UECAwGSGVzc2VuMRQwEgYDVQQKDAtwcml2YWN5aWRlYTEOMAwGA1UE
AwwFQ0EwMDEwHhcNMjExMTE4MDkzOTMyWhcNMjIxMTE4MDkzOTMyWjBUMQswCQYD
VQQGEwJERTEPMA0GA1UECAwGSGVzc2VuMRQwEgYDVQQKDAtwcml2YWN5aWRlYTEe
MBwGA1UEAwwVcmVxdWVzdGVyLmxvY2FsZG9tYWluMIIBIjANBgkqhkiG9w0BAQEF
AAOCAQ8AMIIBCgKCAQEAzb4UT/rOAT9CIhsdnK/dktJ/22y3PjlDQ2sTA/EF9Ad0
vHZpKAuvGY7X/OPNxljyyn8IbVP8BwJEJMa0NEyMBP4zDkDiILoCc1r39U9jbszG
tt9UHTc5fVE2Jl+93D+oi2uirrad1iHn30G4eigqaEjKqC3t4elGXlpybbSEOIeR
/ZQRCyiExsIvKvsB+TZ6CXXRM4g8c0FbyL+UiXCh8MC5LlBTHrEXZGn0LYHgqQ0O
Mum6VYqF8RtvSXm0f4jDDT5UiJs9HziMBPPuamMr9cbbtIOqxHhBOn1L4cg+ccob
YVnqxsTKMl7J6b8SKebGw2P+oFXaevFgmE0m7fpwLQIDAQABo4IBDjCCAQowCwYD
VR0PBAQDAgWgMAkGA1UdEwQCMAAwEQYJYIZIAYb4QgEBBAQDAgZAMDMGCWCGSAGG
+EIBDQQmFiRPcGVuU1NMIEdlbmVyYXRlZCBTZXJ2ZXIgQ2VydGlmaWNhdGUwHQYD
VR0OBBYEFFM/7V0JB7Nle6tFySRbCXeACpbtMHQGA1UdIwRtMGuAFPSnwMyRRq9k
85HyJ/jIsm+KhzJzoUikRjBEMQswCQYDVQQGEwJERTEPMA0GA1UECAwGSGVzc2Vu
MRQwEgYDVQQKDAtwcml2YWN5aWRlYTEOMAwGA1UEAwwFQ0EwMDGCCQD7yOusg80S
BzATBgNVHSUEDDAKBggrBgEFBQcDATANBgkqhkiG9w0BAQsFAAOCAQEAbTfyI86N
thAr2l16qXUp6KZJtjFIsbxP86rb4S+eFuEZQ8xjq6BlFfSI94p55bRzme4ln/sQ
HjmJSv+vTUotPKbFVBdMg6P1Wj/lUBcAoFXp04tjCvxn/O73c0fLBaGvvJzdL5F+
+jKNyKauYUpQIzuJtaeIy5wo6hlf5M0UzsqbXnlo/64zRAIYZJ6d4ls1IBOb8e+b
LP0Afq2MlCuojPWCzXic+mvRJKaZanhaYDio1T600UJ5PIGlPI9kV1+mfDtwnds2
qc2t8si7rnmDhVz7DKMeViSiqH1cPxqDkod3lZxHQIKrlHiAnYwgjKhDtRQO1x/r
Mj80YUDPCqBnog==
-----END CERTIFICATE-----
